target datalayout = "e-m:e-p270:32:32-p271:32:32-p272:64:64-i64:64-i128:128-f80:128-n8:16:32:64-S128"
target triple = "x86_64-pc-linux-gnu"

%struct.EncoderSession = type { i32, i32, i32, i32, ptr, ptr, ptr, i32, i32, i32, i64, i64, i64, i64, i32, i64, [16 x i8], %struct.SampleInfo, i32, %union.anon.4, ptr, ptr, ptr, double, double }
%struct.SampleInfo = type { i32, i32, i32, i32, i32, i32, i32, i32 }
%union.anon.4 = type { %struct.anon.6 }
%struct.anon.6 = type { ptr, %struct.FLACDecoderData }
%struct.FLACDecoderData = type { i64, ptr, i32, i64, [1024 x ptr], i64, i32 }

; Function Attrs: alwaysinline
define internal i64 @fread.inline(ptr noalias %0, i64 %1, i64 %2, ptr noalias %3) #6 {
  %5 = alloca i64, align 8
  %6 = alloca ptr, align 8
  %7 = alloca i64, align 8
  %8 = alloca i64, align 8
  %9 = alloca ptr, align 8
  %10 = alloca i64, align 8
  %11 = alloca i32, align 4
  store ptr %0, ptr %6, align 8, !tbaa !48
  store i64 %1, ptr %7, align 8, !tbaa !9
  store i64 %2, ptr %8, align 8, !tbaa !9
  store ptr %3, ptr %9, align 8, !tbaa !4
  call void @llvm.lifetime.start.p0(i64 8, ptr %10) #14
  %12 = load ptr, ptr %6, align 8, !tbaa !48
  %13 = call i64 @llvm.objectsize.i64.p0(ptr %12, i1 false, i1 true, i1 false)
  store i64 %13, ptr %10, align 8, !tbaa !9
  %14 = load i64, ptr %8, align 8, !tbaa !9
  %15 = load i64, ptr %10, align 8, !tbaa !9
  %16 = load i64, ptr %7, align 8, !tbaa !9
  %17 = udiv i64 %15, %16
  %18 = icmp ule i64 %14, %17
  %19 = zext i1 %18 to i32
  %20 = call i1 @llvm.is.constant.i32(i32 %19)
  br i1 %20, label %21, label %33

21:                                               ; preds = %4
  %22 = load i64, ptr %8, align 8, !tbaa !9
  %23 = load i64, ptr %10, align 8, !tbaa !9
  %24 = load i64, ptr %7, align 8, !tbaa !9
  %25 = udiv i64 %23, %24
  %26 = icmp ule i64 %22, %25
  br i1 %26, label %27, label %33

27:                                               ; preds = %21
  %28 = load ptr, ptr %6, align 8, !tbaa !48
  %29 = load i64, ptr %7, align 8, !tbaa !9
  %30 = load i64, ptr %8, align 8, !tbaa !9
  %31 = load ptr, ptr %9, align 8, !tbaa !4
  %32 = call i64 @fread(ptr noundef %28, i64 noundef %29, i64 noundef %30, ptr noundef %31)
  store i64 %32, ptr %5, align 8
  store i32 1, ptr %11, align 4
  br label %61

33:                                               ; preds = %21, %4
  %34 = load i64, ptr %8, align 8, !tbaa !9
  %35 = load i64, ptr %10, align 8, !tbaa !9
  %36 = load i64, ptr %7, align 8, !tbaa !9
  %37 = udiv i64 %35, %36
  %38 = icmp ule i64 %34, %37
  %39 = zext i1 %38 to i32
  %40 = call i1 @llvm.is.constant.i32(i32 %39)
  br i1 %40, label %41, label %54

41:                                               ; preds = %33
  %42 = load i64, ptr %8, align 8, !tbaa !9
  %43 = load i64, ptr %10, align 8, !tbaa !9
  %44 = load i64, ptr %7, align 8, !tbaa !9
  %45 = udiv i64 %43, %44
  %46 = icmp ule i64 %42, %45
  br i1 %46, label %54, label %47

47:                                               ; preds = %41
  %48 = load ptr, ptr %6, align 8, !tbaa !48
  %49 = load i64, ptr %10, align 8, !tbaa !9
  %50 = load i64, ptr %7, align 8, !tbaa !9
  %51 = load i64, ptr %8, align 8, !tbaa !9
  %52 = load ptr, ptr %9, align 8, !tbaa !4
  %53 = call i64 @__fread_chk(ptr noundef %48, i64 noundef %49, i64 noundef %50, i64 noundef %51, ptr noundef %52)
  store i64 %53, ptr %5, align 8
  store i32 1, ptr %11, align 4
  br label %61

54:                                               ; preds = %41, %33
  %55 = load ptr, ptr %6, align 8, !tbaa !48
  %56 = load i64, ptr %10, align 8, !tbaa !9
  %57 = load i64, ptr %7, align 8, !tbaa !9
  %58 = load i64, ptr %8, align 8, !tbaa !9
  %59 = load ptr, ptr %9, align 8, !tbaa !4
  %60 = call i64 @__fread_chk(ptr noundef %55, i64 noundef %56, i64 noundef %57, i64 noundef %58, ptr noundef %59)
  store i64 %60, ptr %5, align 8
  store i32 1, ptr %11, align 4
  br label %61

61:                                               ; preds = %54, %47, %27
  call void @llvm.lifetime.end.p0(i64 8, ptr %10) #14
  %62 = load i64, ptr %5, align 8
  ret i64 %62
}

; Function Attrs: alwaysinline nounwind
define internal ptr @memcpy.inline(ptr noalias nonnull %0, ptr noalias nonnull %1, i64 %2) #3 {
  %4 = alloca ptr, align 8
  %5 = alloca ptr, align 8
  %6 = alloca i64, align 8
  store ptr %0, ptr %4, align 8, !tbaa !48
  store ptr %1, ptr %5, align 8, !tbaa !48
  store i64 %2, ptr %6, align 8, !tbaa !9
  %7 = load ptr, ptr %4, align 8, !tbaa !48
  %8 = load ptr, ptr %5, align 8, !tbaa !48
  %9 = load i64, ptr %6, align 8, !tbaa !9
  %10 = load ptr, ptr %4, align 8, !tbaa !48
  %11 = call i64 @llvm.objectsize.i64.p0(ptr %10, i1 false, i1 true, i1 false)
  %12 = call ptr @__memcpy_chk(ptr noundef %7, ptr noundef %8, i64 noundef %9, i64 noundef %11) #14
  ret ptr %12
}

; Function Attrs: nounwind sspstrong uwtable
define internal i32 @flac_decoder_read_callback(ptr noundef %0, ptr noundef %1, ptr noundef %2, ptr noundef %3) #0 {
  %5 = alloca i32, align 4
  %6 = alloca ptr, align 8
  %7 = alloca ptr, align 8
  %8 = alloca ptr, align 8
  %9 = alloca ptr, align 8
  %10 = alloca i64, align 8
  %11 = alloca ptr, align 8
  %12 = alloca ptr, align 8
  %13 = alloca i32, align 4
  store ptr %0, ptr %6, align 8, !tbaa !48
  store ptr %1, ptr %7, align 8, !tbaa !11
  store ptr %2, ptr %8, align 8, !tbaa !137
  store ptr %3, ptr %9, align 8, !tbaa !48
  call void @llvm.lifetime.start.p0(i64 8, ptr %10) #14
  store i64 0, ptr %10, align 8, !tbaa !9
  call void @llvm.lifetime.start.p0(i64 8, ptr %11) #14
  %14 = load ptr, ptr %9, align 8, !tbaa !48
  store ptr %14, ptr %11, align 8, !tbaa !48
  call void @llvm.lifetime.start.p0(i64 8, ptr %12) #14
  %15 = load ptr, ptr %11, align 8, !tbaa !48
  %16 = getelementptr inbounds nuw %struct.EncoderSession, ptr %15, i32 0, i32 19
  %17 = getelementptr inbounds nuw %struct.anon.6, ptr %16, i32 0, i32 1
  store ptr %17, ptr %12, align 8, !tbaa !48
  %18 = load ptr, ptr %12, align 8, !tbaa !48
  %19 = getelementptr inbounds nuw %struct.FLACDecoderData, ptr %18, i32 0, i32 6
  %20 = load i32, ptr %19, align 8, !tbaa !175
  %21 = icmp ne i32 %20, 0
  br i1 %21, label %22, label %23

22:                                               ; preds = %4
  store i32 2, ptr %5, align 4
  store i32 1, ptr %13, align 4
  br label %98

23:                                               ; preds = %4
  %24 = load ptr, ptr %12, align 8, !tbaa !48
  %25 = getelementptr inbounds nuw %struct.FLACDecoderData, ptr %24, i32 0, i32 2
  %26 = load i32, ptr %25, align 8, !tbaa !176
  %27 = icmp ne i32 %26, 0
  br i1 %27, label %28, label %67

28:                                               ; preds = %23
  %29 = load ptr, ptr %12, align 8, !tbaa !48
  %30 = getelementptr inbounds nuw %struct.FLACDecoderData, ptr %29, i32 0, i32 2
  %31 = load i32, ptr %30, align 8, !tbaa !176
  %32 = zext i32 %31 to i64
  %33 = load ptr, ptr %8, align 8, !tbaa !137
  %34 = load i64, ptr %33, align 8, !tbaa !9
  %35 = icmp ult i64 %32, %34
  br i1 %35, label %36, label %41

36:                                               ; preds = %28
  %37 = load ptr, ptr %12, align 8, !tbaa !48
  %38 = getelementptr inbounds nuw %struct.FLACDecoderData, ptr %37, i32 0, i32 2
  %39 = load i32, ptr %38, align 8, !tbaa !176
  %40 = zext i32 %39 to i64
  br label %44

41:                                               ; preds = %28
  %42 = load ptr, ptr %8, align 8, !tbaa !137
  %43 = load i64, ptr %42, align 8, !tbaa !9
  br label %44

44:                                               ; preds = %41, %36
  %45 = phi i64 [ %40, %36 ], [ %43, %41 ]
  store i64 %45, ptr %10, align 8, !tbaa !9
  %46 = load ptr, ptr %7, align 8, !tbaa !11
  %47 = load ptr, ptr %12, align 8, !tbaa !48
  %48 = getelementptr inbounds nuw %struct.FLACDecoderData, ptr %47, i32 0, i32 1
  %49 = load ptr, ptr %48, align 8, !tbaa !177
  %50 = load i64, ptr %10, align 8, !tbaa !9
  %51 = call ptr @memcpy.inline(ptr noundef %46, ptr noundef %49, i64 noundef %50) #14
  %52 = load i64, ptr %10, align 8, !tbaa !9
  %53 = load ptr, ptr %7, align 8, !tbaa !11
  %54 = getelementptr inbounds nuw i8, ptr %53, i64 %52
  store ptr %54, ptr %7, align 8, !tbaa !11
  %55 = load i64, ptr %10, align 8, !tbaa !9
  %56 = load ptr, ptr %12, align 8, !tbaa !48
  %57 = getelementptr inbounds nuw %struct.FLACDecoderData, ptr %56, i32 0, i32 1
  %58 = load ptr, ptr %57, align 8, !tbaa !177
  %59 = getelementptr inbounds nuw i8, ptr %58, i64 %55
  store ptr %59, ptr %57, align 8, !tbaa !177
  %60 = load i64, ptr %10, align 8, !tbaa !9
  %61 = load ptr, ptr %12, align 8, !tbaa !48
  %62 = getelementptr inbounds nuw %struct.FLACDecoderData, ptr %61, i32 0, i32 2
  %63 = load i32, ptr %62, align 8, !tbaa !176
  %64 = zext i32 %63 to i64
  %65 = sub i64 %64, %60
  %66 = trunc i64 %65 to i32
  store i32 %66, ptr %62, align 8, !tbaa !176
  br label %67

67:                                               ; preds = %44, %23
  %68 = load ptr, ptr %8, align 8, !tbaa !137
  %69 = load i64, ptr %68, align 8, !tbaa !9
  %70 = load i64, ptr %10, align 8, !tbaa !9
  %71 = icmp ugt i64 %69, %70
  br i1 %71, label %72, label %97

72:                                               ; preds = %67
  %73 = load i64, ptr %10, align 8, !tbaa !9
  %74 = load ptr, ptr %7, align 8, !tbaa !11
  %75 = load ptr, ptr %8, align 8, !tbaa !137
  %76 = load i64, ptr %75, align 8, !tbaa !9
  %77 = load i64, ptr %10, align 8, !tbaa !9
  %78 = sub i64 %76, %77
  %79 = load ptr, ptr %11, align 8, !tbaa !48
  %80 = getelementptr inbounds nuw %struct.EncoderSession, ptr %79, i32 0, i32 21
  %81 = load ptr, ptr %80, align 8, !tbaa !36
  %82 = call i64 @fread.inline(ptr noundef %74, i64 noundef 1, i64 noundef %78, ptr noundef %81)
  %83 = add i64 %73, %82
  %84 = load ptr, ptr %8, align 8, !tbaa !137
  store i64 %83, ptr %84, align 8, !tbaa !9
  %85 = load ptr, ptr %11, align 8, !tbaa !48
  %86 = getelementptr inbounds nuw %struct.EncoderSession, ptr %85, i32 0, i32 21
  %87 = load ptr, ptr %86, align 8, !tbaa !36
  %88 = call i32 @ferror(ptr noundef %87) #14
  %89 = icmp ne i32 %88, 0
  br i1 %89, label %90, label %91

90:                                               ; preds = %72
  store i32 2, ptr %5, align 4
  store i32 1, ptr %13, align 4
  br label %98

91:                                               ; preds = %72
  %92 = load ptr, ptr %8, align 8, !tbaa !137
  %93 = load i64, ptr %92, align 8, !tbaa !9
  %94 = icmp eq i64 0, %93
  br i1 %94, label %95, label %96

95:                                               ; preds = %91
  store i32 1, ptr %5, align 4
  store i32 1, ptr %13, align 4
  br label %98

96:                                               ; preds = %91
  store i32 0, ptr %5, align 4
  store i32 1, ptr %13, align 4
  br label %98

97:                                               ; preds = %67
  store i32 0, ptr %5, align 4
  store i32 1, ptr %13, align 4
  br label %98

98:                                               ; preds = %97, %96, %95, %90, %22
  call void @llvm.lifetime.end.p0(i64 8, ptr %12) #14
  call void @llvm.lifetime.end.p0(i64 8, ptr %11) #14
  call void @llvm.lifetime.end.p0(i64 8, ptr %10) #14
  %99 = load i32, ptr %5, align 4
  ret i32 %99
}