; Function Attrs: nounwind sspstrong uwtable
define internal range(i32 0, 3) i32 @flac_decoder_read_callback(ptr readnone captures(none) %0, ptr noundef %1, ptr noundef captures(none) %2, ptr noundef captures(none) %3) #0 {
  %5 = getelementptr inbounds nuw i8, ptr %3, i64 8400
  %6 = load i32, ptr %5, align 8, !tbaa !175
  %.not = icmp eq i32 %6, 0
  br i1 %.not, label %7, label %33

7:                                                ; preds = %4
  %8 = getelementptr inbounds nuw i8, ptr %3, i64 184
  %9 = load i32, ptr %8, align 8, !tbaa !176
  %.not33 = icmp eq i32 %9, 0
  br i1 %.not33, label %21, label %10

10:                                               ; preds = %7
  %11 = zext i32 %9 to i64
  %12 = load i64, ptr %2, align 8, !tbaa !35
  %. = tail call i64 @llvm.umin.i64(i64 %12, i64 %11)
  %13 = getelementptr inbounds nuw i8, ptr %3, i64 176
  %14 = load ptr, ptr %13, align 8, !tbaa !177
  tail call void @llvm.memcpy.p0.p0.i64(ptr noundef nonnull align 1 %1, ptr noundef nonnull align 1 %14, i64 noundef range(i64 0, 4294967296) %., i1 noundef false) #20
  %15 = getelementptr inbounds nuw i8, ptr %1, i64 %.
  %16 = load ptr, ptr %13, align 8, !tbaa !177
  %17 = getelementptr inbounds nuw i8, ptr %16, i64 %.
  store ptr %17, ptr %13, align 8, !tbaa !177
  %18 = load i32, ptr %8, align 8, !tbaa !176
  %19 = trunc nuw i64 %. to i32
  %20 = sub i32 %18, %19
  store i32 %20, ptr %8, align 8, !tbaa !176
  br label %21

21:                                               ; preds = %10, %7
  %.028 = phi i64 [ %., %10 ], [ 0, %7 ]
  %.027 = phi ptr [ %15, %10 ], [ %1, %7 ]
  %22 = load i64, ptr %2, align 8, !tbaa !35
  %23 = icmp ugt i64 %22, %.028
  br i1 %23, label %fread.inline.exit, label %33

fread.inline.exit:                                ; preds = %21
  %24 = getelementptr inbounds nuw i8, ptr %3, i64 8416
  %25 = load ptr, ptr %24, align 8, !tbaa !31
  %26 = sub nuw i64 %22, %.028
  %27 = tail call i64 @fread(ptr noundef %.027, i64 noundef 1, i64 noundef %26, ptr noundef %25)
  %28 = add i64 %27, %.028
  store i64 %28, ptr %2, align 8, !tbaa !35
  %29 = load ptr, ptr %24, align 8, !tbaa !31
  %30 = tail call i32 @ferror(ptr noundef %29) #20
  %.not34 = icmp eq i32 %30, 0
  br i1 %.not34, label %31, label %33

31:                                               ; preds = %fread.inline.exit
  %32 = icmp eq i64 %28, 0
  %.35 = zext i1 %32 to i32
  br label %33

33:                                               ; preds = %21, %31, %fread.inline.exit, %4
  %.0 = phi i32 [ 2, %4 ], [ 2, %fread.inline.exit ], [ %.35, %31 ], [ 0, %21 ]
  ret i32 %.0
}